target datalayout = "e-m:e-p270:32:32-p271:32:32-p272:64:64-i64:64-i128:128-f80:128-n8:16:32:64-S128"
target triple = "x86_64-unknown-linux-gnu"

%"struct.std::_Rb_tree_key_compare" = type { %"struct.std::less" }
%"struct.std::less" = type { i8 }
%"struct.std::_Rb_tree_header" = type { %"struct.std::_Rb_tree_node_base", i64 }
%"struct.std::_Rb_tree_node_base" = type { i32, ptr, ptr, ptr }
%"class.grpc_core::(anonymous namespace)::XdsResolver::RouteConfigData" = type { %"class.grpc_core::RefCounted", %"class.std::map.168", %"class.std::vector.173" }
%"class.grpc_core::RefCounted" = type { %"class.grpc_core::PolymorphicRefCount", %"class.grpc_core::RefCount" }
%"class.grpc_core::PolymorphicRefCount" = type { ptr }
%"class.grpc_core::RefCount" = type { %"struct.std::atomic.166" }
%"struct.std::atomic.166" = type { %"struct.std::__atomic_base.167" }
%"struct.std::__atomic_base.167" = type { i64 }
%"class.std::map.168" = type { %"class.std::_Rb_tree.169" }
%"class.std::_Rb_tree.169" = type { %"struct.std::_Rb_tree<std::basic_string_view<char>, std::pair<const std::basic_string_view<char>, grpc_core::RefCountedPtr<grpc_core::(anonymous namespace)::XdsResolver::ClusterRef>>, std::_Select1st<std::pair<const std::basic_string_view<char>, grpc_core::RefCountedPtr<grpc_core::(anonymous namespace)::XdsResolver::ClusterRef>>>, std::less<std::basic_string_view<char>>>::_Rb_tree_impl" }
%"struct.std::_Rb_tree<std::basic_string_view<char>, std::pair<const std::basic_string_view<char>, grpc_core::RefCountedPtr<grpc_core::(anonymous namespace)::XdsResolver::ClusterRef>>, std::_Select1st<std::pair<const std::basic_string_view<char>, grpc_core::RefCountedPtr<grpc_core::(anonymous namespace)::XdsResolver::ClusterRef>>>, std::less<std::basic_string_view<char>>>::_Rb_tree_impl" = type { %"struct.std::_Rb_tree_key_compare", %"struct.std::_Rb_tree_header" }
%"class.std::vector.173" = type { %"struct.std::_Vector_base.174" }
%"struct.std::_Vector_base.174" = type { %"struct.std::_Vector_base<grpc_core::(anonymous namespace)::XdsResolver::RouteConfigData::RouteEntry, std::allocator<grpc_core::(anonymous namespace)::XdsResolver::RouteConfigData::RouteEntry>>::_Vector_impl" }
%"struct.std::_Vector_base<grpc_core::(anonymous namespace)::XdsResolver::RouteConfigData::RouteEntry, std::allocator<grpc_core::(anonymous namespace)::XdsResolver::RouteConfigData::RouteEntry>>::_Vector_impl" = type { %"struct.std::_Vector_base<grpc_core::(anonymous namespace)::XdsResolver::RouteConfigData::RouteEntry, std::allocator<grpc_core::(anonymous namespace)::XdsResolver::RouteConfigData::RouteEntry>>::_Vector_impl_data" }
%"struct.std::_Vector_base<grpc_core::(anonymous namespace)::XdsResolver::RouteConfigData::RouteEntry, std::allocator<grpc_core::(anonymous namespace)::XdsResolver::RouteConfigData::RouteEntry>>::_Vector_impl_data" = type { ptr, ptr, ptr }
%"class.grpc_core::(anonymous namespace)::XdsResolver::RouteConfigData::RouteListIterator" = type { %"class.grpc_core::XdsRouting::RouteListIterator", ptr }
%"class.grpc_core::XdsRouting::RouteListIterator" = type { ptr }

; Function Attrs: mustprogress nounwind uwtable
define internal noundef i64 @_ZNKSt6vectorIN9grpc_core12_GLOBAL__N_111XdsResolver15RouteConfigData10RouteEntryESaIS4_EE4sizeEv(ptr noundef nonnull align 8 dereferenceable(24) %this) #4 align 2 {
entry:
  %this.addr = alloca ptr, align 8
  store ptr %this, ptr %this.addr, align 8
  %this1 = load ptr, ptr %this.addr, align 8
  %_M_impl = getelementptr inbounds %"struct.std::_Vector_base.174", ptr %this1, i32 0, i32 0
  %_M_finish = getelementptr inbounds %"struct.std::_Vector_base<grpc_core::(anonymous namespace)::XdsResolver::RouteConfigData::RouteEntry, std::allocator<grpc_core::(anonymous namespace)::XdsResolver::RouteConfigData::RouteEntry>>::_Vector_impl_data", ptr %_M_impl, i32 0, i32 1
  %0 = load ptr, ptr %_M_finish, align 8
  %_M_impl2 = getelementptr inbounds %"struct.std::_Vector_base.174", ptr %this1, i32 0, i32 0
  %_M_start = getelementptr inbounds %"struct.std::_Vector_base<grpc_core::(anonymous namespace)::XdsResolver::RouteConfigData::RouteEntry, std::allocator<grpc_core::(anonymous namespace)::XdsResolver::RouteConfigData::RouteEntry>>::_Vector_impl_data", ptr %_M_impl2, i32 0, i32 0
  %1 = load ptr, ptr %_M_start, align 8
  %sub.ptr.lhs.cast = ptrtoint ptr %0 to i64
  %sub.ptr.rhs.cast = ptrtoint ptr %1 to i64
  %sub.ptr.sub = sub i64 %sub.ptr.lhs.cast, %sub.ptr.rhs.cast
  %sub.ptr.div = sdiv exact i64 %sub.ptr.sub, 288
  ret i64 %sub.ptr.div
}

; Function Attrs: mustprogress nounwind uwtable
define internal noundef i64 @_ZNK9grpc_core12_GLOBAL__N_111XdsResolver15RouteConfigData17RouteListIterator4SizeEv(ptr noundef nonnull align 8 dereferenceable(16) %this) unnamed_addr #4 align 2 {
entry:
  %this.addr = alloca ptr, align 8
  store ptr %this, ptr %this.addr, align 8
  %this1 = load ptr, ptr %this.addr, align 8
  %route_table_ = getelementptr inbounds %"class.grpc_core::(anonymous namespace)::XdsResolver::RouteConfigData::RouteListIterator", ptr %this1, i32 0, i32 1
  %0 = load ptr, ptr %route_table_, align 8
  %routes_ = getelementptr inbounds %"class.grpc_core::(anonymous namespace)::XdsResolver::RouteConfigData", ptr %0, i32 0, i32 2
  %call = call noundef i64 @_ZNKSt6vectorIN9grpc_core12_GLOBAL__N_111XdsResolver15RouteConfigData10RouteEntryESaIS4_EE4sizeEv(ptr noundef nonnull align 8 dereferenceable(24) %routes_) #3
  ret i64 %call
}