; Function Attrs: mustprogress nofree norecurse nosync nounwind willreturn memory(read, inaccessiblemem: none) uwtable
define internal noundef i64 @_ZNK9grpc_core12_GLOBAL__N_111XdsResolver15RouteConfigData17RouteListIterator4SizeEv(ptr nocapture noundef nonnull readonly align 8 dereferenceable(16) %this) unnamed_addr #21 align 2 {
entry:
  %route_table_ = getelementptr inbounds i8, ptr %this, i64 8
  %0 = load ptr, ptr %route_table_, align 8
  %routes_ = getelementptr inbounds i8, ptr %0, i64 64
  %routes_.val = load ptr, ptr %routes_, align 8
  %1 = getelementptr i8, ptr %0, i64 72
  %routes_.val1 = load ptr, ptr %1, align 8
  %sub.ptr.lhs.cast.i = ptrtoint ptr %routes_.val1 to i64
  %sub.ptr.rhs.cast.i = ptrtoint ptr %routes_.val to i64
  %sub.ptr.sub.i = sub i64 %sub.ptr.lhs.cast.i, %sub.ptr.rhs.cast.i
  %sub.ptr.div.i = sdiv exact i64 %sub.ptr.sub.i, 288
  ret i64 %sub.ptr.div.i
}